target datalayout = "e-m:e-p270:32:32-p271:32:32-p272:64:64-i64:64-i128:128-f80:128-n8:16:32:64-S128"
target triple = "x86_64-unknown-linux-gnu"

; Function Attrs: mustprogress nounwind uwtable
define dso_local void @_ZN6snappy9MemCopy64EPcPKvm(ptr noundef %dst, ptr noundef %src, i64 noundef %size) #0 {
entry:
  %dst.addr = alloca ptr, align 8
  %src.addr = alloca ptr, align 8
  %size.addr = alloca i64, align 8
  %kShortMemCopy = alloca i32, align 4
  store ptr %dst, ptr %dst.addr, align 8
  store ptr %src, ptr %src.addr, align 8
  store i64 %size, ptr %size.addr, align 8
  store i32 32, ptr %kShortMemCopy, align 4
  %0 = load ptr, ptr %dst.addr, align 8
  %1 = load ptr, ptr %src.addr, align 8
  call void @llvm.memmove.p0.p0.i64(ptr align 1 %0, ptr align 1 %1, i64 32, i1 false)
  %2 = load i64, ptr %size.addr, align 8
  %cmp = icmp ugt i64 %2, 32
  br i1 %cmp, label %if.then, label %if.end

if.then:                                          ; preds = %entry
  %3 = load ptr, ptr %dst.addr, align 8
  %add.ptr = getelementptr inbounds i8, ptr %3, i64 32
  %4 = load ptr, ptr %src.addr, align 8
  %add.ptr1 = getelementptr inbounds i8, ptr %4, i64 32
  call void @llvm.memmove.p0.p0.i64(ptr align 1 %add.ptr, ptr align 1 %add.ptr1, i64 32, i1 false)
  br label %if.end

if.end:                                           ; preds = %if.then, %entry
  ret void
}