; Function Attrs: mustprogress nofree norecurse nosync nounwind willreturn memory(argmem: readwrite) uwtable
define dso_local void @_ZN6snappy9MemCopy64EPcPKvm(ptr nocapture noundef writeonly %dst, ptr nocapture noundef readonly %src, i64 noundef %size) local_unnamed_addr #1 {
entry:
  tail call void @llvm.memmove.p0.p0.i64(ptr noundef nonnull align 1 dereferenceable(32) %dst, ptr noundef nonnull align 1 dereferenceable(32) %src, i64 32, i1 false)
  %cmp = icmp ugt i64 %size, 32
  br i1 %cmp, label %if.then, label %if.end

if.then:                                          ; preds = %entry
  %add.ptr = getelementptr inbounds i8, ptr %dst, i64 32
  %add.ptr1 = getelementptr inbounds i8, ptr %src, i64 32
  tail call void @llvm.memmove.p0.p0.i64(ptr noundef nonnull align 1 dereferenceable(32) %add.ptr, ptr noundef nonnull align 1 dereferenceable(32) %add.ptr1, i64 32, i1 false)
  br label %if.end

if.end:                                           ; preds = %if.then, %entry
  ret void
}